
learning_alarm.elf:     file format elf32-avr

Sections:
Idx Name          Size      VMA       LMA       File off  Algn
  0 .data         00000000  00800100  00800100  00000226  2**0
                  CONTENTS, ALLOC, LOAD, DATA
  1 .text         000001b2  00000000  00000000  00000074  2**1
                  CONTENTS, ALLOC, LOAD, READONLY, CODE
  2 .bss          00000004  00800100  00800100  00000226  2**0
                  ALLOC
  3 .comment      00000030  00000000  00000000  00000226  2**0
                  CONTENTS, READONLY
  4 .note.gnu.avr.deviceinfo 00000040  00000000  00000000  00000258  2**2
                  CONTENTS, READONLY
  5 .debug_aranges 00000030  00000000  00000000  00000298  2**0
                  CONTENTS, READONLY, DEBUGGING
  6 .debug_info   0000076c  00000000  00000000  000002c8  2**0
                  CONTENTS, READONLY, DEBUGGING
  7 .debug_abbrev 000006c9  00000000  00000000  00000a34  2**0
                  CONTENTS, READONLY, DEBUGGING
  8 .debug_line   00000300  00000000  00000000  000010fd  2**0
                  CONTENTS, READONLY, DEBUGGING
  9 .debug_frame  0000008c  00000000  00000000  00001400  2**2
                  CONTENTS, READONLY, DEBUGGING
 10 .debug_str    000003dd  00000000  00000000  0000148c  2**0
                  CONTENTS, READONLY, DEBUGGING
 11 .debug_loc    00000135  00000000  00000000  00001869  2**0
                  CONTENTS, READONLY, DEBUGGING
 12 .debug_ranges 00000020  00000000  00000000  0000199e  2**0
                  CONTENTS, READONLY, DEBUGGING

Disassembly of section .text:

00000000 <__vectors>:
   0:	0c 94 34 00 	jmp	0x68	; 0x68 <__ctors_end>
   4:	0c 94 46 00 	jmp	0x8c	; 0x8c <__bad_interrupt>
   8:	0c 94 46 00 	jmp	0x8c	; 0x8c <__bad_interrupt>
   c:	0c 94 46 00 	jmp	0x8c	; 0x8c <__bad_interrupt>
  10:	0c 94 46 00 	jmp	0x8c	; 0x8c <__bad_interrupt>
  14:	0c 94 46 00 	jmp	0x8c	; 0x8c <__bad_interrupt>
  18:	0c 94 46 00 	jmp	0x8c	; 0x8c <__bad_interrupt>
  1c:	0c 94 46 00 	jmp	0x8c	; 0x8c <__bad_interrupt>
  20:	0c 94 46 00 	jmp	0x8c	; 0x8c <__bad_interrupt>
  24:	0c 94 93 00 	jmp	0x126	; 0x126 <__vector_9>
  28:	0c 94 46 00 	jmp	0x8c	; 0x8c <__bad_interrupt>
  2c:	0c 94 46 00 	jmp	0x8c	; 0x8c <__bad_interrupt>
  30:	0c 94 46 00 	jmp	0x8c	; 0x8c <__bad_interrupt>
  34:	0c 94 46 00 	jmp	0x8c	; 0x8c <__bad_interrupt>
  38:	0c 94 46 00 	jmp	0x8c	; 0x8c <__bad_interrupt>
  3c:	0c 94 46 00 	jmp	0x8c	; 0x8c <__bad_interrupt>
  40:	0c 94 46 00 	jmp	0x8c	; 0x8c <__bad_interrupt>
  44:	0c 94 46 00 	jmp	0x8c	; 0x8c <__bad_interrupt>
  48:	0c 94 46 00 	jmp	0x8c	; 0x8c <__bad_interrupt>
  4c:	0c 94 46 00 	jmp	0x8c	; 0x8c <__bad_interrupt>
  50:	0c 94 46 00 	jmp	0x8c	; 0x8c <__bad_interrupt>
  54:	0c 94 46 00 	jmp	0x8c	; 0x8c <__bad_interrupt>
  58:	0c 94 46 00 	jmp	0x8c	; 0x8c <__bad_interrupt>
  5c:	0c 94 46 00 	jmp	0x8c	; 0x8c <__bad_interrupt>
  60:	0c 94 46 00 	jmp	0x8c	; 0x8c <__bad_interrupt>
  64:	0c 94 46 00 	jmp	0x8c	; 0x8c <__bad_interrupt>

00000068 <__ctors_end>:
  68:	11 24       	eor	r1, r1
  6a:	1f be       	out	0x3f, r1	; 63
  6c:	cf ef       	ldi	r28, 0xFF	; 255
  6e:	d8 e0       	ldi	r29, 0x08	; 8
  70:	de bf       	out	0x3e, r29	; 62
  72:	cd bf       	out	0x3d, r28	; 61

00000074 <__do_clear_bss>:
  74:	21 e0       	ldi	r18, 0x01	; 1
  76:	a0 e0       	ldi	r26, 0x00	; 0
  78:	b1 e0       	ldi	r27, 0x01	; 1
  7a:	01 c0       	rjmp	.+2      	; 0x7e <.do_clear_bss_start>

0000007c <.do_clear_bss_loop>:
  7c:	1d 92       	st	X+, r1

0000007e <.do_clear_bss_start>:
  7e:	a4 30       	cpi	r26, 0x04	; 4
  80:	b2 07       	cpc	r27, r18
  82:	e1 f7       	brne	.-8      	; 0x7c <.do_clear_bss_loop>
  84:	0e 94 48 00 	call	0x90	; 0x90 <main>
  88:	0c 94 d7 00 	jmp	0x1ae	; 0x1ae <_exit>

0000008c <__bad_interrupt>:
  8c:	0c 94 00 00 	jmp	0	; 0x0 <__vectors>

00000090 <main>:
uint32_t time_learn = 0;

int main(void){
//	DDRB=0xFF;          //PORTB la output PORT
//	PORTB=0x00;
	DDRD=0b100; //D2 is output
  90:	84 e0       	ldi	r24, 0x04	; 4
  92:	8a b9       	out	0x0a, r24	; 10

	TCCR2A=0; //no compare mode
  94:	10 92 b0 00 	sts	0x00B0, r1	; 0x8000b0 <__TEXT_REGION_LENGTH__+0x7f80b0>
	TIMSK2=(1<<TOIE2);//timer2 overflow interrupt enable
  98:	81 e0       	ldi	r24, 0x01	; 1
  9a:	80 93 70 00 	sts	0x0070, r24	; 0x800070 <__TEXT_REGION_LENGTH__+0x7f8070>
	TCCR2B=(1<<CS22)|(1<<CS21)|(1<<CS20); //dividing 1024 from pre-scaler,
  9e:	87 e0       	ldi	r24, 0x07	; 7
  a0:	80 93 b1 00 	sts	0x00B1, r24	; 0x8000b1 <__TEXT_REGION_LENGTH__+0x7f80b1>
	//so with 8bit, timer2 overflows after 1/(16M/(1024*256))s
	sei(); 
  a4:	78 94       	sei
  a6:	ff cf       	rjmp	.-2      	; 0xa6 <main+0x16>

000000a8 <RepeatAlarm>:

}

void RepeatAlarm(void){
	uint32_t  counter_In1_Alarm =0; //ms
	uint32_t  counter_In2_Alarm =0;
  a8:	40 e0       	ldi	r20, 0x00	; 0
  aa:	50 e0       	ldi	r21, 0x00	; 0
  ac:	ba 01       	movw	r22, r20
	}

}

void RepeatAlarm(void){
	uint32_t  counter_In1_Alarm =0; //ms
  ae:	80 e0       	ldi	r24, 0x00	; 0
  b0:	90 e0       	ldi	r25, 0x00	; 0
  b2:	dc 01       	movw	r26, r24
	uint32_t  counter_In2_Alarm =0;

	while(1){//repeat infinitely until reset
	if (counter_In1_Alarm  < 1000){
  b4:	88 3e       	cpi	r24, 0xE8	; 232
  b6:	23 e0       	ldi	r18, 0x03	; 3
  b8:	92 07       	cpc	r25, r18
  ba:	a1 05       	cpc	r26, r1
  bc:	b1 05       	cpc	r27, r1
  be:	d0 f4       	brcc	.+52     	; 0xf4 <RepeatAlarm+0x4c>
		if ( counter_In2_Alarm <100){
  c0:	44 36       	cpi	r20, 0x64	; 100
  c2:	51 05       	cpc	r21, r1
  c4:	61 05       	cpc	r22, r1
  c6:	71 05       	cpc	r23, r1
  c8:	28 f4       	brcc	.+10     	; 0xd4 <RepeatAlarm+0x2c>
			PORTD^=0b100; //reverse B2
  ca:	3b b1       	in	r19, 0x0b	; 11
  cc:	24 e0       	ldi	r18, 0x04	; 4
  ce:	23 27       	eor	r18, r19
  d0:	2b b9       	out	0x0b, r18	; 11
  d2:	0b c0       	rjmp	.+22     	; 0xea <RepeatAlarm+0x42>
		}
		else if (counter_In2_Alarm <1000){
  d4:	48 3e       	cpi	r20, 0xE8	; 232
  d6:	e3 e0       	ldi	r30, 0x03	; 3
  d8:	5e 07       	cpc	r21, r30
  da:	61 05       	cpc	r22, r1
  dc:	71 05       	cpc	r23, r1
  de:	10 f4       	brcc	.+4      	; 0xe4 <RepeatAlarm+0x3c>
			PORTD=0b000;
  e0:	1b b8       	out	0x0b, r1	; 11
  e2:	03 c0       	rjmp	.+6      	; 0xea <RepeatAlarm+0x42>
		}
		else{
			counter_In2_Alarm=0;
  e4:	40 e0       	ldi	r20, 0x00	; 0
  e6:	50 e0       	ldi	r21, 0x00	; 0
  e8:	ba 01       	movw	r22, r20
		}
		counter_In2_Alarm++;
  ea:	4f 5f       	subi	r20, 0xFF	; 255
  ec:	5f 4f       	sbci	r21, 0xFF	; 255
  ee:	6f 4f       	sbci	r22, 0xFF	; 255
  f0:	7f 4f       	sbci	r23, 0xFF	; 255
  f2:	0f c0       	rjmp	.+30     	; 0x112 <RepeatAlarm+0x6a>
	}
	else if (counter_In1_Alarm  < (180000))/*ms*/{
  f4:	80 32       	cpi	r24, 0x20	; 32
  f6:	ff eb       	ldi	r31, 0xBF	; 191
  f8:	9f 07       	cpc	r25, r31
  fa:	f2 e0       	ldi	r31, 0x02	; 2
  fc:	af 07       	cpc	r26, r31
  fe:	b1 05       	cpc	r27, r1
 100:	10 f4       	brcc	.+4      	; 0x106 <RepeatAlarm+0x5e>
		PORTD=0b000;
 102:	1b b8       	out	0x0b, r1	; 11
 104:	06 c0       	rjmp	.+12     	; 0x112 <RepeatAlarm+0x6a>
	}
	else{
		counter_In1_Alarm=0;
		counter_In2_Alarm=0;
 106:	40 e0       	ldi	r20, 0x00	; 0
 108:	50 e0       	ldi	r21, 0x00	; 0
 10a:	ba 01       	movw	r22, r20
	}
	else if (counter_In1_Alarm  < (180000))/*ms*/{
		PORTD=0b000;
	}
	else{
		counter_In1_Alarm=0;
 10c:	80 e0       	ldi	r24, 0x00	; 0
 10e:	90 e0       	ldi	r25, 0x00	; 0
 110:	dc 01       	movw	r26, r24
		counter_In2_Alarm=0;
	}
	counter_In1_Alarm++;
 112:	01 96       	adiw	r24, 0x01	; 1
 114:	a1 1d       	adc	r26, r1
 116:	b1 1d       	adc	r27, r1
	#else
		//round up by default
		__ticks_dc = (uint32_t)(ceil(fabs(__tmp)));
	#endif

	__builtin_avr_delay_cycles(__ticks_dc);
 118:	ef e9       	ldi	r30, 0x9F	; 159
 11a:	ff e0       	ldi	r31, 0x0F	; 15
 11c:	31 97       	sbiw	r30, 0x01	; 1
 11e:	f1 f7       	brne	.-4      	; 0x11c <RepeatAlarm+0x74>
 120:	00 c0       	rjmp	.+0      	; 0x122 <RepeatAlarm+0x7a>
 122:	00 00       	nop
 124:	c7 cf       	rjmp	.-114    	; 0xb4 <RepeatAlarm+0xc>

00000126 <__vector_9>:
	while (1); //do nothing
	return 0;
}


ISR (TIMER2_OVF_vect ){
 126:	1f 92       	push	r1
 128:	0f 92       	push	r0
 12a:	0f b6       	in	r0, 0x3f	; 63
 12c:	0f 92       	push	r0
 12e:	11 24       	eor	r1, r1
 130:	2f 93       	push	r18
 132:	3f 93       	push	r19
 134:	4f 93       	push	r20
 136:	5f 93       	push	r21
 138:	6f 93       	push	r22
 13a:	7f 93       	push	r23
 13c:	8f 93       	push	r24
 13e:	9f 93       	push	r25
 140:	af 93       	push	r26
 142:	bf 93       	push	r27
 144:	ef 93       	push	r30
 146:	ff 93       	push	r31
	SMCR = 0;//disable sleep mode
 148:	13 be       	out	0x33, r1	; 51
	if (time_learn < (73240)){ //3662= (60*16e6) / (1024*256)
 14a:	80 91 00 01 	lds	r24, 0x0100	; 0x800100 <__DATA_REGION_ORIGIN__>
 14e:	90 91 01 01 	lds	r25, 0x0101	; 0x800101 <__DATA_REGION_ORIGIN__+0x1>
 152:	a0 91 02 01 	lds	r26, 0x0102	; 0x800102 <__DATA_REGION_ORIGIN__+0x2>
 156:	b0 91 03 01 	lds	r27, 0x0103	; 0x800103 <__DATA_REGION_ORIGIN__+0x3>
 15a:	88 31       	cpi	r24, 0x18	; 24
 15c:	2e e1       	ldi	r18, 0x1E	; 30
 15e:	92 07       	cpc	r25, r18
 160:	21 e0       	ldi	r18, 0x01	; 1
 162:	a2 07       	cpc	r26, r18
 164:	b1 05       	cpc	r27, r1
 166:	70 f4       	brcc	.+28     	; 0x184 <__vector_9+0x5e>
		//PORTB^=0xff; //reverse B2 LED
		++time_learn;
 168:	01 96       	adiw	r24, 0x01	; 1
 16a:	a1 1d       	adc	r26, r1
 16c:	b1 1d       	adc	r27, r1
 16e:	80 93 00 01 	sts	0x0100, r24	; 0x800100 <__DATA_REGION_ORIGIN__>
 172:	90 93 01 01 	sts	0x0101, r25	; 0x800101 <__DATA_REGION_ORIGIN__+0x1>
 176:	a0 93 02 01 	sts	0x0102, r26	; 0x800102 <__DATA_REGION_ORIGIN__+0x2>
 17a:	b0 93 03 01 	sts	0x0103, r27	; 0x800103 <__DATA_REGION_ORIGIN__+0x3>
		SMCR= (1<<SM1)|(1<<SM0)|(1<<SE);//go to power-save mode, wake up with timer 2 overflows
 17e:	87 e0       	ldi	r24, 0x07	; 7
 180:	83 bf       	out	0x33, r24	; 51

		TCCR2B =0;//stop timer2
		RepeatAlarm();//repeat infinitely until reset
	}

}
 182:	04 c0       	rjmp	.+8      	; 0x18c <__vector_9+0x66>
		++time_learn;
		SMCR= (1<<SM1)|(1<<SM0)|(1<<SE);//go to power-save mode, wake up with timer 2 overflows
	}
	else {

		TCCR2B =0;//stop timer2
 184:	10 92 b1 00 	sts	0x00B1, r1	; 0x8000b1 <__TEXT_REGION_LENGTH__+0x7f80b1>
		RepeatAlarm();//repeat infinitely until reset
 188:	0e 94 54 00 	call	0xa8	; 0xa8 <RepeatAlarm>
	}

}
 18c:	ff 91       	pop	r31
 18e:	ef 91       	pop	r30
 190:	bf 91       	pop	r27
 192:	af 91       	pop	r26
 194:	9f 91       	pop	r25
 196:	8f 91       	pop	r24
 198:	7f 91       	pop	r23
 19a:	6f 91       	pop	r22
 19c:	5f 91       	pop	r21
 19e:	4f 91       	pop	r20
 1a0:	3f 91       	pop	r19
 1a2:	2f 91       	pop	r18
 1a4:	0f 90       	pop	r0
 1a6:	0f be       	out	0x3f, r0	; 63
 1a8:	0f 90       	pop	r0
 1aa:	1f 90       	pop	r1
 1ac:	18 95       	reti

000001ae <_exit>:
 1ae:	f8 94       	cli

000001b0 <__stop_program>:
 1b0:	ff cf       	rjmp	.-2      	; 0x1b0 <__stop_program>
